target datalayout = "e-m:e-p270:32:32-p271:32:32-p272:64:64-i64:64-i128:128-f80:128-n8:16:32:64-S128"
target triple = "x86_64-pc-linux-gnu"

@_ZTIN3nix8SysErrorE = linkonce_odr constant { ptr, ptr, ptr } { ptr getelementptr inbounds (ptr, ptr @_ZTVN10__cxxabiv120__si_class_type_infoE, i64 2), ptr @_ZTSN3nix8SysErrorE, ptr @_ZTIN3nix11SystemErrorE }, comdat, align 8
@.str.9 = private unnamed_addr constant [46 x i8] c"unsharing filesystem state in download thread\00", align 1

; Function Attrs: mustprogress uwtable
define void @_ZN3nix17unshareFilesystemEv() #3 personality ptr @__gxx_personality_v0 {
  %1 = alloca ptr, align 8
  %2 = alloca i32, align 4
  %3 = call i32 @unshare(i32 noundef 512) #1
  %4 = icmp ne i32 %3, 0
  br i1 %4, label %5, label %16

5:                                                ; preds = %0
  %6 = call ptr @__errno_location() #20
  %7 = load i32, ptr %6, align 4
  %8 = icmp ne i32 %7, 1
  br i1 %8, label %9, label %16

9:                                                ; preds = %5
  %10 = call ptr @__cxa_allocate_exception(i64 384) #1
  invoke void @_ZN3nix8SysErrorC2IJA46_cEEEDpRKT_(ptr noundef nonnull align 8 dereferenceable(380) %10, ptr noundef nonnull align 1 dereferenceable(46) @.str.9)
          to label %11 unwind label %12

11:                                               ; preds = %9
  call void @__cxa_throw(ptr %10, ptr @_ZTIN3nix8SysErrorE, ptr @_ZN3nix8SysErrorD2Ev) #19
  unreachable

12:                                               ; preds = %9
  %13 = landingpad { ptr, i32 }
          cleanup
  %14 = extractvalue { ptr, i32 } %13, 0
  store ptr %14, ptr %1, align 8
  %15 = extractvalue { ptr, i32 } %13, 1
  store i32 %15, ptr %2, align 4
  call void @__cxa_free_exception(ptr %10) #1
  br label %17

16:                                               ; preds = %5, %0
  ret void

17:                                               ; preds = %12
  %18 = load ptr, ptr %1, align 8
  %19 = load i32, ptr %2, align 4
  %20 = insertvalue { ptr, i32 } poison, ptr %18, 0
  %21 = insertvalue { ptr, i32 } %20, i32 %19, 1
  resume { ptr, i32 } %21
}