; Function Attrs: mustprogress uwtable
define void @_ZN3nix17unshareFilesystemEv() local_unnamed_addr #2 personality ptr @__gxx_personality_v0 {
  %1 = tail call i32 @unshare(i32 noundef 512) #25
  %.not = icmp eq i32 %1, 0
  br i1 %.not, label %10, label %2

2:                                                ; preds = %0
  %3 = tail call ptr @__errno_location() #29
  %4 = load i32, ptr %3, align 4
  %.not1 = icmp eq i32 %4, 1
  br i1 %.not1, label %10, label %5

5:                                                ; preds = %2
  %6 = tail call ptr @__cxa_allocate_exception(i64 384) #25
  invoke void @_ZN3nix8SysErrorC2IJA46_cEEEDpRKT_(ptr noundef nonnull align 8 dereferenceable(380) %6, ptr noundef nonnull align 1 dereferenceable(46) @.str.9)
          to label %7 unwind label %8

7:                                                ; preds = %5
  tail call void @__cxa_throw(ptr nonnull %6, ptr nonnull @_ZTIN3nix8SysErrorE, ptr nonnull @_ZN3nix8SysErrorD2Ev) #28
  unreachable

8:                                                ; preds = %5
  %9 = landingpad { ptr, i32 }
          cleanup
  tail call void @__cxa_free_exception(ptr %6) #25
  resume { ptr, i32 } %9

10:                                               ; preds = %2, %0
  ret void
}